target datalayout = "e-m:e-p270:32:32-p271:32:32-p272:64:64-i64:64-i128:128-f80:128-n8:16:32:64-S128"
target triple = "x86_64-pc-linux-gnu"

%struct.Gia_Man_t_ = type { ptr, ptr, i32, i32, i32, i32, ptr, ptr, i32, i32, i32, ptr, ptr, %struct.Vec_Int_t_, %struct.Vec_Int_t_, i32, i32, i32, %struct.Vec_Int_t_, ptr, ptr, ptr, i32, i32, i32, i32, ptr, ptr, ptr, ptr, ptr, i32, i32, ptr, i32, ptr, ptr, ptr, ptr, ptr, ptr, ptr, ptr, ptr, ptr, ptr, ptr, ptr, ptr, ptr, ptr, ptr, ptr, %struct.Vec_Int_t_, %struct.Vec_Int_t_, ptr, ptr, ptr, ptr, ptr, ptr, ptr, ptr, ptr, ptr, ptr, ptr, ptr, ptr, ptr, ptr, ptr, ptr, ptr, ptr, ptr, i32, float, float, ptr, ptr, i32, ptr, ptr, ptr, ptr, ptr, ptr, ptr, ptr, ptr, ptr, ptr, ptr, ptr, ptr, ptr, i64, i64, ptr, ptr, i32, i32, i32, i32, i32, i32, i32, i32, i32, i32, i32, i32, ptr, ptr, ptr, ptr, ptr, ptr, ptr, ptr, i32, i32, i32, ptr, i32, i32, ptr, ptr, ptr, ptr, ptr, ptr, i32, i32, ptr, %struct.Vec_Int_t_, %struct.Vec_Int_t_, %struct.Vec_Int_t_, ptr, ptr, ptr, i32, i32, i32, i32, ptr, ptr, ptr, ptr, ptr }
%struct.Vec_Int_t_ = type { i32, i32, ptr }
%struct.Gia_Obj_t_ = type <{ i64, i32 }>

; Function Attrs: inlinehint nounwind uwtable
define internal void @Vec_IntGrow(ptr noundef %0, i32 noundef %1) #3 {
  %3 = alloca ptr, align 8
  %4 = alloca i32, align 4
  store ptr %0, ptr %3, align 8, !tbaa !74
  store i32 %1, ptr %4, align 4, !tbaa !42
  %5 = load ptr, ptr %3, align 8, !tbaa !74
  %6 = getelementptr inbounds nuw %struct.Vec_Int_t_, ptr %5, i32 0, i32 0
  %7 = load i32, ptr %6, align 8, !tbaa !93
  %8 = load i32, ptr %4, align 4, !tbaa !42
  %9 = icmp sge i32 %7, %8
  br i1 %9, label %10, label %11

10:                                               ; preds = %2
  br label %36

11:                                               ; preds = %2
  %12 = load ptr, ptr %3, align 8, !tbaa !74
  %13 = getelementptr inbounds nuw %struct.Vec_Int_t_, ptr %12, i32 0, i32 2
  %14 = load ptr, ptr %13, align 8, !tbaa !94
  %15 = icmp ne ptr %14, null
  br i1 %15, label %16, label %24

16:                                               ; preds = %11
  %17 = load ptr, ptr %3, align 8, !tbaa !74
  %18 = getelementptr inbounds nuw %struct.Vec_Int_t_, ptr %17, i32 0, i32 2
  %19 = load ptr, ptr %18, align 8, !tbaa !94
  %20 = load i32, ptr %4, align 4, !tbaa !42
  %21 = sext i32 %20 to i64
  %22 = mul i64 4, %21
  %23 = call ptr @realloc(ptr noundef %19, i64 noundef %22) #18
  br label %29

24:                                               ; preds = %11
  %25 = load i32, ptr %4, align 4, !tbaa !42
  %26 = sext i32 %25 to i64
  %27 = mul i64 4, %26
  %28 = call noalias ptr @malloc(i64 noundef %27) #16
  br label %29

29:                                               ; preds = %24, %16
  %30 = phi ptr [ %23, %16 ], [ %28, %24 ]
  %31 = load ptr, ptr %3, align 8, !tbaa !74
  %32 = getelementptr inbounds nuw %struct.Vec_Int_t_, ptr %31, i32 0, i32 2
  store ptr %30, ptr %32, align 8, !tbaa !94
  %33 = load i32, ptr %4, align 4, !tbaa !42
  %34 = load ptr, ptr %3, align 8, !tbaa !74
  %35 = getelementptr inbounds nuw %struct.Vec_Int_t_, ptr %34, i32 0, i32 0
  store i32 %33, ptr %35, align 8, !tbaa !93
  br label %36

36:                                               ; preds = %29, %10
  ret void
}

; Function Attrs: inlinehint nounwind uwtable
define internal i32 @Gia_ObjId(ptr noundef %0, ptr noundef %1) #3 {
  %3 = alloca ptr, align 8
  %4 = alloca ptr, align 8
  store ptr %0, ptr %3, align 8, !tbaa !40
  store ptr %1, ptr %4, align 8, !tbaa !72
  %5 = load ptr, ptr %4, align 8, !tbaa !72
  %6 = load ptr, ptr %3, align 8, !tbaa !40
  %7 = getelementptr inbounds nuw %struct.Gia_Man_t_, ptr %6, i32 0, i32 6
  %8 = load ptr, ptr %7, align 8, !tbaa !76
  %9 = ptrtoint ptr %5 to i64
  %10 = ptrtoint ptr %8 to i64
  %11 = sub i64 %9, %10
  %12 = sdiv exact i64 %11, 12
  %13 = trunc i64 %12 to i32
  ret i32 %13
}

; Function Attrs: inlinehint nounwind uwtable
define internal i32 @Abc_Lit2Var(i32 noundef %0) #3 {
  %2 = alloca i32, align 4
  store i32 %0, ptr %2, align 4, !tbaa !42
  %3 = load i32, ptr %2, align 4, !tbaa !42
  %4 = ashr i32 %3, 1
  ret i32 %4
}

; Function Attrs: inlinehint nounwind uwtable
define internal i32 @Gia_ObjValue(ptr noundef %0) #3 {
  %2 = alloca ptr, align 8
  store ptr %0, ptr %2, align 8, !tbaa !72
  %3 = load ptr, ptr %2, align 8, !tbaa !72
  %4 = getelementptr inbounds nuw %struct.Gia_Obj_t_, ptr %3, i32 0, i32 1
  %5 = load i32, ptr %4, align 4, !tbaa !157
  ret i32 %5
}

; Function Attrs: inlinehint nounwind uwtable
define internal ptr @Gia_ManObj(ptr noundef %0, i32 noundef %1) #3 {
  %3 = alloca ptr, align 8
  %4 = alloca i32, align 4
  store ptr %0, ptr %3, align 8, !tbaa !40
  store i32 %1, ptr %4, align 4, !tbaa !42
  %5 = load ptr, ptr %3, align 8, !tbaa !40
  %6 = getelementptr inbounds nuw %struct.Gia_Man_t_, ptr %5, i32 0, i32 6
  %7 = load ptr, ptr %6, align 8, !tbaa !76
  %8 = load i32, ptr %4, align 4, !tbaa !42
  %9 = sext i32 %8 to i64
  %10 = getelementptr inbounds %struct.Gia_Obj_t_, ptr %7, i64 %9
  ret ptr %10
}

; Function Attrs: inlinehint nounwind uwtable
define internal void @Vec_IntPush(ptr noundef %0, i32 noundef %1) #3 {
  %3 = alloca ptr, align 8
  %4 = alloca i32, align 4
  store ptr %0, ptr %3, align 8, !tbaa !74
  store i32 %1, ptr %4, align 4, !tbaa !42
  %5 = load ptr, ptr %3, align 8, !tbaa !74
  %6 = getelementptr inbounds nuw %struct.Vec_Int_t_, ptr %5, i32 0, i32 1
  %7 = load i32, ptr %6, align 4, !tbaa !75
  %8 = load ptr, ptr %3, align 8, !tbaa !74
  %9 = getelementptr inbounds nuw %struct.Vec_Int_t_, ptr %8, i32 0, i32 0
  %10 = load i32, ptr %9, align 8, !tbaa !93
  %11 = icmp eq i32 %7, %10
  br i1 %11, label %12, label %26

12:                                               ; preds = %2
  %13 = load ptr, ptr %3, align 8, !tbaa !74
  %14 = getelementptr inbounds nuw %struct.Vec_Int_t_, ptr %13, i32 0, i32 0
  %15 = load i32, ptr %14, align 8, !tbaa !93
  %16 = icmp slt i32 %15, 16
  br i1 %16, label %17, label %19

17:                                               ; preds = %12
  %18 = load ptr, ptr %3, align 8, !tbaa !74
  call void @Vec_IntGrow(ptr noundef %18, i32 noundef 16)
  br label %25

19:                                               ; preds = %12
  %20 = load ptr, ptr %3, align 8, !tbaa !74
  %21 = load ptr, ptr %3, align 8, !tbaa !74
  %22 = getelementptr inbounds nuw %struct.Vec_Int_t_, ptr %21, i32 0, i32 0
  %23 = load i32, ptr %22, align 8, !tbaa !93
  %24 = mul nsw i32 2, %23
  call void @Vec_IntGrow(ptr noundef %20, i32 noundef %24)
  br label %25

25:                                               ; preds = %19, %17
  br label %26

26:                                               ; preds = %25, %2
  %27 = load i32, ptr %4, align 4, !tbaa !42
  %28 = load ptr, ptr %3, align 8, !tbaa !74
  %29 = getelementptr inbounds nuw %struct.Vec_Int_t_, ptr %28, i32 0, i32 2
  %30 = load ptr, ptr %29, align 8, !tbaa !94
  %31 = load ptr, ptr %3, align 8, !tbaa !74
  %32 = getelementptr inbounds nuw %struct.Vec_Int_t_, ptr %31, i32 0, i32 1
  %33 = load i32, ptr %32, align 4, !tbaa !75
  %34 = add nsw i32 %33, 1
  store i32 %34, ptr %32, align 4, !tbaa !75
  %35 = sext i32 %33 to i64
  %36 = getelementptr inbounds i32, ptr %30, i64 %35
  store i32 %27, ptr %36, align 4, !tbaa !42
  ret void
}

; Function Attrs: inlinehint nounwind uwtable
define internal ptr @Vec_IntAlloc(i32 noundef %0) #3 {
  %2 = alloca i32, align 4
  %3 = alloca ptr, align 8
  store i32 %0, ptr %2, align 4, !tbaa !42
  call void @llvm.lifetime.start.p0(i64 8, ptr %3) #14
  %4 = call noalias ptr @malloc(i64 noundef 16) #16
  store ptr %4, ptr %3, align 8, !tbaa !74
  %5 = load i32, ptr %2, align 4, !tbaa !42
  %6 = icmp sgt i32 %5, 0
  br i1 %6, label %7, label %11

7:                                                ; preds = %1
  %8 = load i32, ptr %2, align 4, !tbaa !42
  %9 = icmp slt i32 %8, 16
  br i1 %9, label %10, label %11

10:                                               ; preds = %7
  store i32 16, ptr %2, align 4, !tbaa !42
  br label %11

11:                                               ; preds = %10, %7, %1
  %12 = load ptr, ptr %3, align 8, !tbaa !74
  %13 = getelementptr inbounds nuw %struct.Vec_Int_t_, ptr %12, i32 0, i32 1
  store i32 0, ptr %13, align 4, !tbaa !75
  %14 = load i32, ptr %2, align 4, !tbaa !42
  %15 = load ptr, ptr %3, align 8, !tbaa !74
  %16 = getelementptr inbounds nuw %struct.Vec_Int_t_, ptr %15, i32 0, i32 0
  store i32 %14, ptr %16, align 8, !tbaa !93
  %17 = load ptr, ptr %3, align 8, !tbaa !74
  %18 = getelementptr inbounds nuw %struct.Vec_Int_t_, ptr %17, i32 0, i32 0
  %19 = load i32, ptr %18, align 8, !tbaa !93
  %20 = icmp ne i32 %19, 0
  br i1 %20, label %21, label %28

21:                                               ; preds = %11
  %22 = load ptr, ptr %3, align 8, !tbaa !74
  %23 = getelementptr inbounds nuw %struct.Vec_Int_t_, ptr %22, i32 0, i32 0
  %24 = load i32, ptr %23, align 8, !tbaa !93
  %25 = sext i32 %24 to i64
  %26 = mul i64 4, %25
  %27 = call noalias ptr @malloc(i64 noundef %26) #16
  br label %29

28:                                               ; preds = %11
  br label %29

29:                                               ; preds = %28, %21
  %30 = phi ptr [ %27, %21 ], [ null, %28 ]
  %31 = load ptr, ptr %3, align 8, !tbaa !74
  %32 = getelementptr inbounds nuw %struct.Vec_Int_t_, ptr %31, i32 0, i32 2
  store ptr %30, ptr %32, align 8, !tbaa !94
  %33 = load ptr, ptr %3, align 8, !tbaa !74
  call void @llvm.lifetime.end.p0(i64 8, ptr %3) #14
  ret ptr %33
}

; Function Attrs: inlinehint nounwind uwtable
define internal i32 @Vec_IntSize(ptr noundef %0) #3 {
  %2 = alloca ptr, align 8
  store ptr %0, ptr %2, align 8, !tbaa !74
  %3 = load ptr, ptr %2, align 8, !tbaa !74
  %4 = getelementptr inbounds nuw %struct.Vec_Int_t_, ptr %3, i32 0, i32 1
  %5 = load i32, ptr %4, align 4, !tbaa !75
  ret i32 %5
}

; Function Attrs: inlinehint nounwind uwtable
define internal i32 @Vec_IntEntry(ptr noundef %0, i32 noundef %1) #3 {
  %3 = alloca ptr, align 8
  %4 = alloca i32, align 4
  store ptr %0, ptr %3, align 8, !tbaa !74
  store i32 %1, ptr %4, align 4, !tbaa !42
  %5 = load ptr, ptr %3, align 8, !tbaa !74
  %6 = getelementptr inbounds nuw %struct.Vec_Int_t_, ptr %5, i32 0, i32 2
  %7 = load ptr, ptr %6, align 8, !tbaa !94
  %8 = load i32, ptr %4, align 4, !tbaa !42
  %9 = sext i32 %8 to i64
  %10 = getelementptr inbounds i32, ptr %7, i64 %9
  %11 = load i32, ptr %10, align 4, !tbaa !42
  ret i32 %11
}

; Function Attrs: nounwind uwtable
define void @Gia_ManTransferPacking(ptr noundef %0, ptr noundef %1) #0 {
  %3 = alloca ptr, align 8
  %4 = alloca ptr, align 8
  %5 = alloca ptr, align 8
  %6 = alloca ptr, align 8
  %7 = alloca ptr, align 8
  %8 = alloca i32, align 4
  %9 = alloca i32, align 4
  %10 = alloca i32, align 4
  %11 = alloca i32, align 4
  %12 = alloca i32, align 4
  %13 = alloca i32, align 4
  store ptr %0, ptr %3, align 8, !tbaa !40
  store ptr %1, ptr %4, align 8, !tbaa !40
  call void @llvm.lifetime.start.p0(i64 8, ptr %5) #14
  call void @llvm.lifetime.start.p0(i64 8, ptr %6) #14
  call void @llvm.lifetime.start.p0(i64 8, ptr %7) #14
  call void @llvm.lifetime.start.p0(i64 4, ptr %8) #14
  call void @llvm.lifetime.start.p0(i64 4, ptr %9) #14
  call void @llvm.lifetime.start.p0(i64 4, ptr %10) #14
  call void @llvm.lifetime.start.p0(i64 4, ptr %11) #14
  call void @llvm.lifetime.start.p0(i64 4, ptr %12) #14
  %14 = load ptr, ptr %4, align 8, !tbaa !40
  %15 = getelementptr inbounds nuw %struct.Gia_Man_t_, ptr %14, i32 0, i32 42
  %16 = load ptr, ptr %15, align 8, !tbaa !115
  %17 = icmp eq ptr %16, null
  br i1 %17, label %18, label %19

18:                                               ; preds = %2
  store i32 1, ptr %13, align 4
  br label %89

19:                                               ; preds = %2
  %20 = load ptr, ptr %4, align 8, !tbaa !40
  %21 = getelementptr inbounds nuw %struct.Gia_Man_t_, ptr %20, i32 0, i32 42
  %22 = load ptr, ptr %21, align 8, !tbaa !115
  %23 = call i32 @Vec_IntEntry(ptr noundef %22, i32 noundef 0)
  store i32 %23, ptr %11, align 4, !tbaa !42
  store i32 0, ptr %12, align 4, !tbaa !42
  %24 = load ptr, ptr %4, align 8, !tbaa !40
  %25 = getelementptr inbounds nuw %struct.Gia_Man_t_, ptr %24, i32 0, i32 42
  %26 = load ptr, ptr %25, align 8, !tbaa !115
  %27 = call i32 @Vec_IntSize(ptr noundef %26)
  %28 = call ptr @Vec_IntAlloc(i32 noundef %27)
  store ptr %28, ptr %5, align 8, !tbaa !74
  %29 = load ptr, ptr %5, align 8, !tbaa !74
  %30 = load i32, ptr %11, align 4, !tbaa !42
  call void @Vec_IntPush(ptr noundef %29, i32 noundef %30)
  store i32 1, ptr %8, align 4, !tbaa !42
  br label %31

31:                                               ; preds = %82, %19
  %32 = load i32, ptr %8, align 4, !tbaa !42
  %33 = load ptr, ptr %4, align 8, !tbaa !40
  %34 = getelementptr inbounds nuw %struct.Gia_Man_t_, ptr %33, i32 0, i32 42
  %35 = load ptr, ptr %34, align 8, !tbaa !115
  %36 = call i32 @Vec_IntSize(ptr noundef %35)
  %37 = icmp slt i32 %32, %36
  br i1 %37, label %38, label %44

38:                                               ; preds = %31
  %39 = load ptr, ptr %4, align 8, !tbaa !40
  %40 = getelementptr inbounds nuw %struct.Gia_Man_t_, ptr %39, i32 0, i32 42
  %41 = load ptr, ptr %40, align 8, !tbaa !115
  %42 = load i32, ptr %8, align 4, !tbaa !42
  %43 = call i32 @Vec_IntEntry(ptr noundef %41, i32 noundef %42)
  store i32 %43, ptr %10, align 4, !tbaa !42
  br label %44

44:                                               ; preds = %38, %31
  %45 = phi i1 [ false, %31 ], [ true, %38 ]
  br i1 %45, label %46, label %85

46:                                               ; preds = %44
  %47 = load ptr, ptr %5, align 8, !tbaa !74
  %48 = load i32, ptr %10, align 4, !tbaa !42
  call void @Vec_IntPush(ptr noundef %47, i32 noundef %48)
  %49 = load i32, ptr %8, align 4, !tbaa !42
  %50 = add nsw i32 %49, 1
  store i32 %50, ptr %8, align 4, !tbaa !42
  store i32 0, ptr %9, align 4, !tbaa !42
  br label %51

51:                                               ; preds = %72, %46
  %52 = load i32, ptr %9, align 4, !tbaa !42
  %53 = load i32, ptr %10, align 4, !tbaa !42
  %54 = icmp slt i32 %52, %53
  br i1 %54, label %55, label %77

55:                                               ; preds = %51
  %56 = load ptr, ptr %4, align 8, !tbaa !40
  %57 = load ptr, ptr %4, align 8, !tbaa !40
  %58 = getelementptr inbounds nuw %struct.Gia_Man_t_, ptr %57, i32 0, i32 42
  %59 = load ptr, ptr %58, align 8, !tbaa !115
  %60 = load i32, ptr %8, align 4, !tbaa !42
  %61 = call i32 @Vec_IntEntry(ptr noundef %59, i32 noundef %60)
  %62 = call ptr @Gia_ManObj(ptr noundef %56, i32 noundef %61)
  store ptr %62, ptr %6, align 8, !tbaa !72
  %63 = load ptr, ptr %3, align 8, !tbaa !40
  %64 = load ptr, ptr %6, align 8, !tbaa !72
  %65 = call i32 @Gia_ObjValue(ptr noundef %64)
  %66 = call i32 @Abc_Lit2Var(i32 noundef %65)
  %67 = call ptr @Gia_ManObj(ptr noundef %63, i32 noundef %66)
  store ptr %67, ptr %7, align 8, !tbaa !72
  %68 = load ptr, ptr %5, align 8, !tbaa !74
  %69 = load ptr, ptr %3, align 8, !tbaa !40
  %70 = load ptr, ptr %7, align 8, !tbaa !72
  %71 = call i32 @Gia_ObjId(ptr noundef %69, ptr noundef %70)
  call void @Vec_IntPush(ptr noundef %68, i32 noundef %71)
  br label %72

72:                                               ; preds = %55
  %73 = load i32, ptr %9, align 4, !tbaa !42
  %74 = add nsw i32 %73, 1
  store i32 %74, ptr %9, align 4, !tbaa !42
  %75 = load i32, ptr %8, align 4, !tbaa !42
  %76 = add nsw i32 %75, 1
  store i32 %76, ptr %8, align 4, !tbaa !42
  br label %51, !llvm.loop !300

77:                                               ; preds = %51
  %78 = load i32, ptr %8, align 4, !tbaa !42
  %79 = add nsw i32 %78, -1
  store i32 %79, ptr %8, align 4, !tbaa !42
  %80 = load i32, ptr %12, align 4, !tbaa !42
  %81 = add nsw i32 %80, 1
  store i32 %81, ptr %12, align 4, !tbaa !42
  br label %82

82:                                               ; preds = %77
  %83 = load i32, ptr %8, align 4, !tbaa !42
  %84 = add nsw i32 %83, 1
  store i32 %84, ptr %8, align 4, !tbaa !42
  br label %31, !llvm.loop !301

85:                                               ; preds = %44
  %86 = load ptr, ptr %5, align 8, !tbaa !74
  %87 = load ptr, ptr %3, align 8, !tbaa !40
  %88 = getelementptr inbounds nuw %struct.Gia_Man_t_, ptr %87, i32 0, i32 42
  store ptr %86, ptr %88, align 8, !tbaa !115
  store i32 0, ptr %13, align 4
  br label %89

89:                                               ; preds = %85, %18
  call void @llvm.lifetime.end.p0(i64 4, ptr %12) #14
  call void @llvm.lifetime.end.p0(i64 4, ptr %11) #14
  call void @llvm.lifetime.end.p0(i64 4, ptr %10) #14
  call void @llvm.lifetime.end.p0(i64 4, ptr %9) #14
  call void @llvm.lifetime.end.p0(i64 4, ptr %8) #14
  call void @llvm.lifetime.end.p0(i64 8, ptr %7) #14
  call void @llvm.lifetime.end.p0(i64 8, ptr %6) #14
  call void @llvm.lifetime.end.p0(i64 8, ptr %5) #14
  %90 = load i32, ptr %13, align 4
  switch i32 %90, label %92 [
    i32 0, label %91
    i32 1, label %91
  ]

91:                                               ; preds = %89, %89
  ret void

92:                                               ; preds = %89
  unreachable
}