; Function Attrs: nounwind uwtable
define void @Gia_ManTransferPacking(ptr noundef writeonly captures(none) %0, ptr noundef readonly captures(none) %1) local_unnamed_addr #4 {
  %3 = getelementptr inbounds nuw i8, ptr %1, i64 304
  %4 = load ptr, ptr %3, align 8, !tbaa !99
  %5 = icmp eq ptr %4, null
  br i1 %5, label %80, label %6

6:                                                ; preds = %2
  %7 = getelementptr i8, ptr %4, i64 8
  %.val32 = load ptr, ptr %7, align 8, !tbaa !47
  %8 = load i32, ptr %.val32, align 4, !tbaa !48
  %9 = getelementptr i8, ptr %4, i64 4
  %.val34 = load i32, ptr %9, align 4, !tbaa !54
  %10 = tail call noalias dereferenceable_or_null(16) ptr @malloc(i64 noundef 16) #29
  %11 = add i32 %.val34, -1
  %or.cond.i = icmp ult i32 %11, 15
  %spec.store.select.i = select i1 %or.cond.i, i32 16, i32 %.val34
  %12 = getelementptr inbounds nuw i8, ptr %10, i64 4
  store i32 %spec.store.select.i, ptr %10, align 8, !tbaa !76
  %.not.i = icmp eq i32 %spec.store.select.i, 0
  br i1 %.not.i, label %Vec_IntGrow.exit.i, label %.Vec_IntGrow.exit10_crit_edge.i

.Vec_IntGrow.exit10_crit_edge.i:                  ; preds = %6
  %13 = sext i32 %spec.store.select.i to i64
  %14 = shl nsw i64 %13, 2
  %15 = tail call noalias ptr @malloc(i64 noundef %14) #29
  %16 = getelementptr inbounds nuw i8, ptr %10, i64 8
  store ptr %15, ptr %16, align 8, !tbaa !47
  br label %Vec_IntPush.exit

Vec_IntGrow.exit.i:                               ; preds = %6
  %17 = getelementptr inbounds nuw i8, ptr %10, i64 8
  %18 = tail call noalias dereferenceable_or_null(64) ptr @malloc(i64 noundef 64) #29
  store ptr %18, ptr %17, align 8, !tbaa !47
  store i32 16, ptr %10, align 8, !tbaa !76
  br label %Vec_IntPush.exit

Vec_IntPush.exit:                                 ; preds = %.Vec_IntGrow.exit10_crit_edge.i, %Vec_IntGrow.exit.i
  %19 = phi ptr [ %16, %.Vec_IntGrow.exit10_crit_edge.i ], [ %17, %Vec_IntGrow.exit.i ]
  %20 = phi ptr [ %15, %.Vec_IntGrow.exit10_crit_edge.i ], [ %18, %Vec_IntGrow.exit.i ]
  store i32 1, ptr %12, align 4, !tbaa !54
  store i32 %8, ptr %20, align 4, !tbaa !48
  %21 = icmp sgt i32 %.val34, 1
  br i1 %21, label %.lr.ph58, label %.critedge

.lr.ph58:                                         ; preds = %Vec_IntPush.exit
  %22 = getelementptr i8, ptr %1, i64 32
  br label %27

.loopexit.loopexit:                               ; preds = %Vec_IntPush.exit52
  %23 = trunc nsw i64 %indvars.iv.next to i32
  br label %.loopexit

.loopexit:                                        ; preds = %.loopexit.loopexit, %Vec_IntPush.exit45
  %.pre.i4866 = phi ptr [ %.pre.i4864, %Vec_IntPush.exit45 ], [ %.pre.i4868, %.loopexit.loopexit ]
  %.pre.i4163 = phi ptr [ %.pre.i4161, %Vec_IntPush.exit45 ], [ %.pre.i4868, %.loopexit.loopexit ]
  %.1.lcssa = phi i32 [ %.153, %Vec_IntPush.exit45 ], [ %23, %.loopexit.loopexit ]
  %24 = load ptr, ptr %3, align 8, !tbaa !99
  %25 = getelementptr i8, ptr %24, i64 4
  %.val33 = load i32, ptr %25, align 4, !tbaa !54
  %26 = icmp slt i32 %.1.lcssa, %.val33
  br i1 %26, label %27, label %.critedge, !llvm.loop !284

27:                                               ; preds = %.lr.ph58, %.loopexit
  %.pre.i4865 = phi ptr [ %20, %.lr.ph58 ], [ %.pre.i4866, %.loopexit ]
  %28 = phi ptr [ %20, %.lr.ph58 ], [ %.pre.i4163, %.loopexit ]
  %29 = phi ptr [ %4, %.lr.ph58 ], [ %24, %.loopexit ]
  %.02857 = phi i32 [ 1, %.lr.ph58 ], [ %.1.lcssa, %.loopexit ]
  %30 = getelementptr i8, ptr %29, i64 8
  %.val31 = load ptr, ptr %30, align 8, !tbaa !47
  %31 = sext i32 %.02857 to i64
  %32 = getelementptr inbounds i32, ptr %.val31, i64 %31
  %33 = load i32, ptr %32, align 4, !tbaa !48
  %34 = load i32, ptr %12, align 4, !tbaa !54
  %35 = load i32, ptr %10, align 8, !tbaa !76
  %36 = icmp eq i32 %34, %35
  br i1 %36, label %Vec_IntPush.exit45.sink.split, label %Vec_IntPush.exit45

Vec_IntPush.exit45.sink.split:                    ; preds = %27
  %37 = icmp slt i32 %34, 16
  %38 = shl nuw nsw i32 %34, 1
  %39 = zext nneg i32 %38 to i64
  %40 = shl nuw nsw i64 %39, 2
  %.sink70 = select i1 %37, i64 64, i64 %40
  %.sink = select i1 %37, i32 16, i32 %38
  %41 = tail call ptr @realloc(ptr noundef nonnull %28, i64 noundef %.sink70) #28
  store ptr %41, ptr %19, align 8, !tbaa !47
  store i32 %.sink, ptr %10, align 8, !tbaa !76
  br label %Vec_IntPush.exit45

Vec_IntPush.exit45:                               ; preds = %Vec_IntPush.exit45.sink.split, %27
  %.pre.i4864 = phi ptr [ %.pre.i4865, %27 ], [ %41, %Vec_IntPush.exit45.sink.split ]
  %.pre.i4161 = phi ptr [ %28, %27 ], [ %41, %Vec_IntPush.exit45.sink.split ]
  %42 = load i32, ptr %12, align 4, !tbaa !54
  %43 = add nsw i32 %42, 1
  store i32 %43, ptr %12, align 4, !tbaa !54
  %44 = sext i32 %42 to i64
  %45 = getelementptr inbounds i32, ptr %.pre.i4161, i64 %44
  store i32 %33, ptr %45, align 4, !tbaa !48
  %.153 = add nsw i32 %.02857, 1
  %46 = icmp sgt i32 %33, 0
  br i1 %46, label %.lr.ph.preheader, label %.loopexit

.lr.ph.preheader:                                 ; preds = %Vec_IntPush.exit45
  %47 = sext i32 %.153 to i64
  br label %.lr.ph

.lr.ph:                                           ; preds = %.lr.ph.preheader, %Vec_IntPush.exit52
  %48 = phi ptr [ %.pre.i4864, %.lr.ph.preheader ], [ %.pre.i4868, %Vec_IntPush.exit52 ]
  %indvars.iv = phi i64 [ %47, %.lr.ph.preheader ], [ %indvars.iv.next, %Vec_IntPush.exit52 ]
  %.02954 = phi i32 [ 0, %.lr.ph.preheader ], [ %78, %Vec_IntPush.exit52 ]
  %49 = load ptr, ptr %3, align 8, !tbaa !99
  %50 = getelementptr i8, ptr %49, i64 8
  %.val = load ptr, ptr %50, align 8, !tbaa !47
  %51 = getelementptr inbounds i32, ptr %.val, i64 %indvars.iv
  %52 = load i32, ptr %51, align 4, !tbaa !48
  %.val36 = load ptr, ptr %22, align 8, !tbaa !55
  %53 = sext i32 %52 to i64
  %54 = getelementptr %struct.Gia_Obj_t_, ptr %.val36, i64 %53, i32 1
  %.val38 = load i32, ptr %54, align 4, !tbaa !139
  %55 = ashr i32 %.val38, 1
  %56 = load i32, ptr %12, align 4, !tbaa !54
  %57 = load i32, ptr %10, align 8, !tbaa !76
  %58 = icmp eq i32 %56, %57
  br i1 %58, label %59, label %Vec_IntPush.exit52

59:                                               ; preds = %.lr.ph
  %60 = icmp slt i32 %56, 16
  br i1 %60, label %61, label %66

61:                                               ; preds = %59
  %.not9.i.i50 = icmp eq ptr %48, null
  br i1 %.not9.i.i50, label %64, label %62

62:                                               ; preds = %61
  %63 = tail call dereferenceable_or_null(64) ptr @realloc(ptr noundef nonnull %48, i64 noundef 64) #28
  br label %Vec_IntPush.exit52.sink.split

64:                                               ; preds = %61
  %65 = tail call noalias dereferenceable_or_null(64) ptr @malloc(i64 noundef 64) #29
  br label %Vec_IntPush.exit52.sink.split

66:                                               ; preds = %59
  %67 = shl nuw nsw i32 %56, 1
  %.not9.i9.i49 = icmp eq ptr %48, null
  %68 = zext nneg i32 %67 to i64
  %69 = shl nuw nsw i64 %68, 2
  br i1 %.not9.i9.i49, label %72, label %70

70:                                               ; preds = %66
  %71 = tail call ptr @realloc(ptr noundef nonnull %48, i64 noundef %69) #28
  br label %Vec_IntPush.exit52.sink.split

72:                                               ; preds = %66
  %73 = tail call noalias ptr @malloc(i64 noundef %69) #29
  br label %Vec_IntPush.exit52.sink.split

Vec_IntPush.exit52.sink.split:                    ; preds = %70, %72, %62, %64
  %.sink72 = phi ptr [ %63, %62 ], [ %65, %64 ], [ %71, %70 ], [ %73, %72 ]
  %.sink71 = phi i32 [ 16, %62 ], [ 16, %64 ], [ %67, %70 ], [ %67, %72 ]
  store ptr %.sink72, ptr %19, align 8, !tbaa !47
  store i32 %.sink71, ptr %10, align 8, !tbaa !76
  br label %Vec_IntPush.exit52

Vec_IntPush.exit52:                               ; preds = %Vec_IntPush.exit52.sink.split, %.lr.ph
  %.pre.i4868 = phi ptr [ %48, %.lr.ph ], [ %.sink72, %Vec_IntPush.exit52.sink.split ]
  %74 = load i32, ptr %12, align 4, !tbaa !54
  %75 = add nsw i32 %74, 1
  store i32 %75, ptr %12, align 4, !tbaa !54
  %76 = sext i32 %74 to i64
  %77 = getelementptr inbounds i32, ptr %.pre.i4868, i64 %76
  store i32 %55, ptr %77, align 4, !tbaa !48
  %78 = add nuw nsw i32 %.02954, 1
  %indvars.iv.next = add nsw i64 %indvars.iv, 1
  %exitcond.not = icmp eq i32 %78, %33
  br i1 %exitcond.not, label %.loopexit.loopexit, label %.lr.ph, !llvm.loop !285

.critedge:                                        ; preds = %.loopexit, %Vec_IntPush.exit
  %79 = getelementptr inbounds nuw i8, ptr %0, i64 304
  store ptr %10, ptr %79, align 8, !tbaa !99
  br label %80

80:                                               ; preds = %2, %.critedge
  ret void
}